; Function Attrs: nounwind uwtable
define internal ptr @unicode_decodecharmap(ptr readnone captures(none) %0, ptr noundef %1) #0 {
  %3 = alloca ptr, align 8
  %4 = alloca i64, align 8
  %5 = alloca ptr, align 8
  %6 = alloca ptr, align 8
  call void @llvm.lifetime.start.p0(i64 8, ptr nonnull %3) #4
  call void @llvm.lifetime.start.p0(i64 8, ptr nonnull %4) #4
  call void @llvm.lifetime.start.p0(i64 8, ptr nonnull %5) #4
  call void @llvm.lifetime.start.p0(i64 8, ptr nonnull %6) #4
  store ptr null, ptr %6, align 8, !tbaa !3
  %7 = call i32 (ptr, ptr, ...) @PyArg_ParseTuple(ptr noundef %1, ptr noundef nonnull @.str.383, ptr noundef nonnull %3, ptr noundef nonnull %4, ptr noundef nonnull %5, ptr noundef nonnull %6) #4
  %.not = icmp eq i32 %7, 0
  br i1 %.not, label %19, label %8

8:                                                ; preds = %2
  %9 = load ptr, ptr %5, align 8, !tbaa !8
  %10 = call ptr @Py_GetConstantBorrowed(i32 noundef 0) #4
  %11 = icmp eq ptr %9, %10
  br i1 %11, label %12, label %._crit_edge

._crit_edge:                                      ; preds = %8
  %.pre = load ptr, ptr %5, align 8, !tbaa !8
  br label %13

12:                                               ; preds = %8
  store ptr null, ptr %5, align 8, !tbaa !8
  br label %13

13:                                               ; preds = %._crit_edge, %12
  %14 = phi ptr [ %.pre, %._crit_edge ], [ null, %12 ]
  %15 = load ptr, ptr %3, align 8, !tbaa !3
  %16 = load i64, ptr %4, align 8, !tbaa !10
  %17 = load ptr, ptr %6, align 8, !tbaa !3
  %18 = call ptr @PyUnicode_DecodeCharmap(ptr noundef %15, i64 noundef %16, ptr noundef %14, ptr noundef %17) #4
  br label %19

19:                                               ; preds = %2, %13
  %.0 = phi ptr [ %18, %13 ], [ null, %2 ]
  call void @llvm.lifetime.end.p0(i64 8, ptr nonnull %6) #4
  call void @llvm.lifetime.end.p0(i64 8, ptr nonnull %5) #4
  call void @llvm.lifetime.end.p0(i64 8, ptr nonnull %4) #4
  call void @llvm.lifetime.end.p0(i64 8, ptr nonnull %3) #4
  ret ptr %.0
}